
a.out:     file format elf32-littleriscv


Disassembly of section seg_text:

00010054 <_start>:
   10054:	00408093          	addi	ra,ra,4
   10058:	40110133          	sub	sp,sp,ra
   1005c:	04c002ef          	jal	t0,100a8 <main>

00010060 <modulo>:
   10060:	fe010113          	addi	sp,sp,-32
   10064:	00812e23          	sw	s0,28(sp)
   10068:	02010413          	addi	s0,sp,32
   1006c:	fea42623          	sw	a0,-20(s0)
   10070:	feb42423          	sw	a1,-24(s0)
   10074:	0140006f          	j	10088 <modulo+0x28>
   10078:	fec42703          	lw	a4,-20(s0)
   1007c:	fe842783          	lw	a5,-24(s0)
   10080:	40f707b3          	sub	a5,a4,a5
   10084:	fef42623          	sw	a5,-20(s0)
   10088:	fec42703          	lw	a4,-20(s0)
   1008c:	fe842783          	lw	a5,-24(s0)
   10090:	fef754e3          	bge	a4,a5,10078 <modulo+0x18>
   10094:	fec42783          	lw	a5,-20(s0)
   10098:	00078513          	mv	a0,a5
   1009c:	01c12403          	lw	s0,28(sp)
   100a0:	02010113          	addi	sp,sp,32
   100a4:	00008067          	ret

000100a8 <main>:
   100a8:	fe010113          	addi	sp,sp,-32
   100ac:	00112e23          	sw	ra,28(sp)
   100b0:	00812c23          	sw	s0,24(sp)
   100b4:	02010413          	addi	s0,sp,32
   100b8:	00300793          	li	a5,3
   100bc:	fef42223          	sw	a5,-28(s0)
   100c0:	00700793          	li	a5,7
   100c4:	fef42023          	sw	a5,-32(s0)
   100c8:	00100793          	li	a5,1
   100cc:	fef42423          	sw	a5,-24(s0)
   100d0:	0400006f          	j	10110 <main+0x68>
   100d4:	fe842583          	lw	a1,-24(s0)
   100d8:	fe442503          	lw	a0,-28(s0)
   100dc:	f85ff0ef          	jal	ra,10060 <modulo>
   100e0:	00050793          	mv	a5,a0
   100e4:	02079063          	bnez	a5,10104 <main+0x5c>
   100e8:	fe842583          	lw	a1,-24(s0)
   100ec:	fe042503          	lw	a0,-32(s0)
   100f0:	f71ff0ef          	jal	ra,10060 <modulo>
   100f4:	00050793          	mv	a5,a0
   100f8:	00079663          	bnez	a5,10104 <main+0x5c>
   100fc:	fe842783          	lw	a5,-24(s0)
   10100:	fef42623          	sw	a5,-20(s0)
   10104:	fe842783          	lw	a5,-24(s0)
   10108:	00178793          	addi	a5,a5,1
   1010c:	fef42423          	sw	a5,-24(s0)
   10110:	fe842703          	lw	a4,-24(s0)
   10114:	fe442783          	lw	a5,-28(s0)
   10118:	00e7c863          	blt	a5,a4,10128 <main+0x80>
   1011c:	fe842703          	lw	a4,-24(s0)
   10120:	fe042783          	lw	a5,-32(s0)
   10124:	fae7d8e3          	bge	a5,a4,100d4 <main+0x2c>
   10128:	fec42703          	lw	a4,-20(s0)
   1012c:	00100793          	li	a5,1
   10130:	00f71663          	bne	a4,a5,1013c <main+0x94>
   10134:	ed1ef0ef          	jal	ra,4 <_good>
   10138:	0080006f          	j	10140 <main+0x98>
   1013c:	ec5ef0ef          	jal	ra,0 <_bad>
   10140:	00000793          	li	a5,0
   10144:	00078513          	mv	a0,a5
   10148:	01c12083          	lw	ra,28(sp)
   1014c:	01812403          	lw	s0,24(sp)
   10150:	02010113          	addi	sp,sp,32
   10154:	00008067          	ret

Disassembly of section text:

00000000 <_bad>:
   0:	00000013          	nop

00000004 <_good>:
   4:	00000013          	nop

00000008 <_exception_occur>:
   8:	00000013          	nop

Disassembly of section seg_kernel:

81000000 <_exception>:
81000000:	34205573          	csrrwi	a0,mcause,0
81000004:	3400f5f3          	csrrci	a1,mscratch,1
81000008:	00a5a023          	sw	a0,0(a1)
8100000c:	00251513          	slli	a0,a0,0x2
81000010:	00000597          	auipc	a1,0x0
81000014:	08c58593          	addi	a1,a1,140 # 8100009c <_isr_vector>
81000018:	00a585b3          	add	a1,a1,a0
8100001c:	0005a603          	lw	a2,0(a1)
81000020:	00060067          	jr	a2

81000024 <_instruction_address_misagligned>:
81000024:	00000013          	nop
81000028:	00800093          	li	ra,8
8100002c:	00008067          	ret

81000030 <_instruction_address_fault>:
81000030:	00000013          	nop
81000034:	00800093          	li	ra,8
81000038:	00008067          	ret

8100003c <_illegal_instruction>:
8100003c:	00000013          	nop
81000040:	00800093          	li	ra,8
81000044:	00008067          	ret

81000048 <_load_adress_missaligned>:
81000048:	00000013          	nop
8100004c:	00800093          	li	ra,8
81000050:	00008067          	ret

81000054 <_load_access_fault>:
81000054:	00000013          	nop
81000058:	00800093          	li	ra,8
8100005c:	00008067          	ret

81000060 <_store_adress_missaligned>:
81000060:	00000013          	nop
81000064:	00800093          	li	ra,8
81000068:	00008067          	ret

8100006c <_store_access_fault>:
8100006c:	00000013          	nop
81000070:	00800093          	li	ra,8
81000074:	00008067          	ret

81000078 <_env_call_u_mode>:
81000078:	00000013          	nop
8100007c:	30200073          	mret

81000080 <_env_call_s_mode>:
81000080:	00000013          	nop
81000084:	30200073          	mret

81000088 <_env_call_m_mode>:
81000088:	00000013          	nop
8100008c:	30200073          	mret

81000090 <_env_call_wrong_mode>:
81000090:	00000013          	nop
81000094:	00800093          	li	ra,8
81000098:	00008067          	ret
